; Function Attrs: nounwind uwtable
define internal ptr @aes256gcm_dupctx(ptr noundef %0) #0 {
  %2 = tail call i32 @ossl_prov_is_running() #2
  %.not.i = icmp eq i32 %2, 0
  %3 = icmp eq ptr %0, null
  %or.cond.i = or i1 %3, %.not.i
  br i1 %or.cond.i, label %aes_gcm_dupctx.exit, label %4

4:                                                ; preds = %1
  %5 = tail call noalias ptr @CRYPTO_memdup(ptr noundef nonnull %0, i64 noundef 960, ptr noundef nonnull @.str, i32 noundef 48) #2
  %.not11.i = icmp eq ptr %5, null
  br i1 %.not11.i, label %aes_gcm_dupctx.exit, label %6

6:                                                ; preds = %4
  %7 = getelementptr inbounds nuw i8, ptr %5, i64 640
  %8 = load ptr, ptr %7, align 8, !tbaa !3
  %.not12.i = icmp eq ptr %8, null
  br i1 %.not12.i, label %aes_gcm_dupctx.exit, label %9

9:                                                ; preds = %6
  %10 = getelementptr inbounds nuw i8, ptr %5, i64 704
  store ptr %10, ptr %7, align 8, !tbaa !3
  br label %aes_gcm_dupctx.exit

aes_gcm_dupctx.exit:                              ; preds = %1, %4, %6, %9
  %.0.i = phi ptr [ null, %1 ], [ %5, %9 ], [ %5, %6 ], [ null, %4 ]
  ret ptr %.0.i
}